target datalayout = "e-m:e-p270:32:32-p271:32:32-p272:64:64-i64:64-i128:128-f80:128-n8:16:32:64-S128"
target triple = "x86_64-pc-linux-gnu"

%struct.mbedtls_ssl_ticket_context = type { [2 x %struct.mbedtls_ssl_ticket_key], i8, i32, ptr, ptr }
%struct.mbedtls_ssl_ticket_key = type { [4 x i8], i64, i32, %struct.mbedtls_cipher_context_t }
%struct.mbedtls_cipher_context_t = type { ptr, i32, i32, ptr, ptr, [16 x i8], i64, [16 x i8], i64, ptr, ptr }
%struct.mbedtls_ssl_session = type { i8, i8, i8, i32, i64, i32, i64, [32 x i8], [48 x i8], ptr, i32, ptr, i64, i32, i64, i32, i8, i8, [48 x i8], ptr, i64, i32, %struct.mbedtls_ssl_tls13_application_secrets }
%struct.mbedtls_ssl_tls13_application_secrets = type { [64 x i8], [64 x i8], [64 x i8], [64 x i8] }

; Function Attrs: inlinehint nounwind uwtable
define internal i32 @mbedtls_ssl_session_get_ticket_creation_time(ptr noundef %0, ptr noundef %1) #3 {
  %3 = alloca i32, align 4
  %4 = alloca ptr, align 8
  %5 = alloca ptr, align 8
  store ptr %0, ptr %4, align 8, !tbaa !33
  store ptr %1, ptr %5, align 8, !tbaa !35
  %6 = load ptr, ptr %4, align 8, !tbaa !33
  %7 = icmp eq ptr %6, null
  br i1 %7, label %17, label %8

8:                                                ; preds = %2
  %9 = load ptr, ptr %5, align 8, !tbaa !35
  %10 = icmp eq ptr %9, null
  br i1 %10, label %17, label %11

11:                                               ; preds = %8
  %12 = load ptr, ptr %4, align 8, !tbaa !33
  %13 = getelementptr inbounds nuw %struct.mbedtls_ssl_session, ptr %12, i32 0, i32 2
  %14 = load i8, ptr %13, align 2, !tbaa !43
  %15 = zext i8 %14 to i32
  %16 = icmp ne i32 %15, 1
  br i1 %16, label %17, label %18

17:                                               ; preds = %11, %8, %2
  store i32 -28928, ptr %3, align 4
  br label %23

18:                                               ; preds = %11
  %19 = load ptr, ptr %4, align 8, !tbaa !33
  %20 = getelementptr inbounds nuw %struct.mbedtls_ssl_session, ptr %19, i32 0, i32 14
  %21 = load i64, ptr %20, align 8, !tbaa !47
  %22 = load ptr, ptr %5, align 8, !tbaa !35
  store i64 %21, ptr %22, align 8, !tbaa !10
  store i32 0, ptr %3, align 4
  br label %23

23:                                               ; preds = %18, %17
  %24 = load i32, ptr %3, align 4
  ret i32 %24
}

; Function Attrs: nounwind uwtable
define internal ptr @ssl_ticket_select_key(ptr noundef %0, ptr noundef %1) #0 {
  %3 = alloca ptr, align 8
  %4 = alloca ptr, align 8
  %5 = alloca ptr, align 8
  %6 = alloca i8, align 1
  %7 = alloca i32, align 4
  store ptr %0, ptr %4, align 8, !tbaa !3
  store ptr %1, ptr %5, align 8, !tbaa !8
  call void @llvm.lifetime.start.p0(i64 1, ptr %6) #10
  store i8 0, ptr %6, align 1, !tbaa !16
  br label %8

8:                                                ; preds = %30, %2
  %9 = load i8, ptr %6, align 1, !tbaa !16
  %10 = zext i8 %9 to i64
  %11 = icmp ult i64 %10, 2
  br i1 %11, label %12, label %33

12:                                               ; preds = %8
  %13 = load ptr, ptr %5, align 8, !tbaa !8
  %14 = load ptr, ptr %4, align 8, !tbaa !3
  %15 = getelementptr inbounds nuw %struct.mbedtls_ssl_ticket_context, ptr %14, i32 0, i32 0
  %16 = load i8, ptr %6, align 1, !tbaa !16
  %17 = zext i8 %16 to i64
  %18 = getelementptr inbounds nuw [2 x %struct.mbedtls_ssl_ticket_key], ptr %15, i64 0, i64 %17
  %19 = getelementptr inbounds nuw %struct.mbedtls_ssl_ticket_key, ptr %18, i32 0, i32 0
  %20 = getelementptr inbounds [4 x i8], ptr %19, i64 0, i64 0
  %21 = call i32 @memcmp(ptr noundef %13, ptr noundef %20, i64 noundef 4) #11
  %22 = icmp eq i32 %21, 0
  br i1 %22, label %23, label %29

23:                                               ; preds = %12
  %24 = load ptr, ptr %4, align 8, !tbaa !3
  %25 = getelementptr inbounds nuw %struct.mbedtls_ssl_ticket_context, ptr %24, i32 0, i32 0
  %26 = load i8, ptr %6, align 1, !tbaa !16
  %27 = zext i8 %26 to i64
  %28 = getelementptr inbounds nuw [2 x %struct.mbedtls_ssl_ticket_key], ptr %25, i64 0, i64 %27
  store ptr %28, ptr %3, align 8
  store i32 1, ptr %7, align 4
  br label %34

29:                                               ; preds = %12
  br label %30

30:                                               ; preds = %29
  %31 = load i8, ptr %6, align 1, !tbaa !16
  %32 = add i8 %31, 1
  store i8 %32, ptr %6, align 1, !tbaa !16
  br label %8, !llvm.loop !41

33:                                               ; preds = %8
  store ptr null, ptr %3, align 8
  store i32 1, ptr %7, align 4
  br label %34

34:                                               ; preds = %33, %23
  call void @llvm.lifetime.end.p0(i64 1, ptr %6) #10
  %35 = load ptr, ptr %3, align 8
  ret ptr %35
}

; Function Attrs: alwaysinline nounwind uwtable
define internal zeroext i16 @mbedtls_get_unaligned_uint16(ptr noundef %0) #7 {
  %2 = alloca ptr, align 8
  %3 = alloca i16, align 2
  store ptr %0, ptr %2, align 8, !tbaa !29
  call void @llvm.lifetime.start.p0(i64 2, ptr %3) #10
  %4 = load ptr, ptr %2, align 8, !tbaa !29
  call void @llvm.memcpy.p0.p0.i64(ptr align 2 %3, ptr align 1 %4, i64 2, i1 false)
  %5 = load i16, ptr %3, align 2, !tbaa !39
  call void @llvm.lifetime.end.p0(i64 2, ptr %3) #10
  ret i16 %5
}

; Function Attrs: nounwind uwtable
define hidden i32 @mbedtls_ssl_ticket_parse(ptr noundef %0, ptr noundef %1, ptr noundef %2, i64 noundef %3) #0 {
  %5 = alloca i32, align 4
  %6 = alloca ptr, align 8
  %7 = alloca ptr, align 8
  %8 = alloca ptr, align 8
  %9 = alloca i64, align 8
  %10 = alloca i32, align 4
  %11 = alloca ptr, align 8
  %12 = alloca ptr, align 8
  %13 = alloca ptr, align 8
  %14 = alloca ptr, align 8
  %15 = alloca ptr, align 8
  %16 = alloca ptr, align 8
  %17 = alloca i64, align 8
  %18 = alloca i64, align 8
  %19 = alloca i32, align 4
  %20 = alloca i64, align 8
  %21 = alloca i64, align 8
  %22 = alloca i64, align 8
  store ptr %0, ptr %6, align 8, !tbaa !29
  store ptr %1, ptr %7, align 8, !tbaa !33
  store ptr %2, ptr %8, align 8, !tbaa !8
  store i64 %3, ptr %9, align 8, !tbaa !10
  call void @llvm.lifetime.start.p0(i64 4, ptr %10) #10
  store i32 -110, ptr %10, align 4, !tbaa !12
  call void @llvm.lifetime.start.p0(i64 8, ptr %11) #10
  %23 = load ptr, ptr %6, align 8, !tbaa !29
  store ptr %23, ptr %11, align 8, !tbaa !3
  call void @llvm.lifetime.start.p0(i64 8, ptr %12) #10
  call void @llvm.lifetime.start.p0(i64 8, ptr %13) #10
  %24 = load ptr, ptr %8, align 8, !tbaa !8
  store ptr %24, ptr %13, align 8, !tbaa !8
  call void @llvm.lifetime.start.p0(i64 8, ptr %14) #10
  %25 = load ptr, ptr %8, align 8, !tbaa !8
  %26 = getelementptr inbounds i8, ptr %25, i64 4
  store ptr %26, ptr %14, align 8, !tbaa !8
  call void @llvm.lifetime.start.p0(i64 8, ptr %15) #10
  %27 = load ptr, ptr %14, align 8, !tbaa !8
  %28 = getelementptr inbounds i8, ptr %27, i64 12
  store ptr %28, ptr %15, align 8, !tbaa !8
  call void @llvm.lifetime.start.p0(i64 8, ptr %16) #10
  %29 = load ptr, ptr %15, align 8, !tbaa !8
  %30 = getelementptr inbounds i8, ptr %29, i64 2
  store ptr %30, ptr %16, align 8, !tbaa !8
  call void @llvm.lifetime.start.p0(i64 8, ptr %17) #10
  call void @llvm.lifetime.start.p0(i64 8, ptr %18) #10
  %31 = load ptr, ptr %11, align 8, !tbaa !3
  %32 = icmp eq ptr %31, null
  br i1 %32, label %38, label %33

33:                                               ; preds = %4
  %34 = load ptr, ptr %11, align 8, !tbaa !3
  %35 = getelementptr inbounds nuw %struct.mbedtls_ssl_ticket_context, ptr %34, i32 0, i32 3
  %36 = load ptr, ptr %35, align 8, !tbaa !31
  %37 = icmp eq ptr %36, null
  br i1 %37, label %38, label %39

38:                                               ; preds = %33, %4
  store i32 -28928, ptr %5, align 4
  store i32 1, ptr %19, align 4
  br label %120

39:                                               ; preds = %33
  %40 = load i64, ptr %9, align 8, !tbaa !10
  %41 = icmp ult i64 %40, 34
  br i1 %41, label %42, label %43

42:                                               ; preds = %39
  store i32 -28928, ptr %5, align 4
  store i32 1, ptr %19, align 4
  br label %120

43:                                               ; preds = %39
  %44 = load ptr, ptr %11, align 8, !tbaa !3
  %45 = call i32 @ssl_ticket_update_keys(ptr noundef %44)
  store i32 %45, ptr %10, align 4, !tbaa !12
  %46 = icmp ne i32 %45, 0
  br i1 %46, label %47, label %48

47:                                               ; preds = %43
  br label %118

48:                                               ; preds = %43
  %49 = load ptr, ptr %15, align 8, !tbaa !8
  %50 = getelementptr inbounds i8, ptr %49, i64 0
  %51 = call zeroext i16 @mbedtls_get_unaligned_uint16(ptr noundef %50)
  %52 = call i16 @llvm.bswap.i16(i16 %51)
  %53 = zext i16 %52 to i32
  %54 = sext i32 %53 to i64
  store i64 %54, ptr %17, align 8, !tbaa !10
  %55 = load i64, ptr %9, align 8, !tbaa !10
  %56 = load i64, ptr %17, align 8, !tbaa !10
  %57 = add i64 34, %56
  %58 = icmp ne i64 %55, %57
  br i1 %58, label %59, label %60

59:                                               ; preds = %48
  store i32 -28928, ptr %10, align 4, !tbaa !12
  br label %118

60:                                               ; preds = %48
  %61 = load ptr, ptr %11, align 8, !tbaa !3
  %62 = load ptr, ptr %13, align 8, !tbaa !8
  %63 = call ptr @ssl_ticket_select_key(ptr noundef %61, ptr noundef %62)
  store ptr %63, ptr %12, align 8, !tbaa !17
  %64 = icmp eq ptr %63, null
  br i1 %64, label %65, label %66

65:                                               ; preds = %60
  store i32 -28032, ptr %10, align 4, !tbaa !12
  br label %118

66:                                               ; preds = %60
  %67 = load ptr, ptr %12, align 8, !tbaa !17
  %68 = getelementptr inbounds nuw %struct.mbedtls_ssl_ticket_key, ptr %67, i32 0, i32 3
  %69 = load ptr, ptr %14, align 8, !tbaa !8
  %70 = load ptr, ptr %13, align 8, !tbaa !8
  %71 = load ptr, ptr %16, align 8, !tbaa !8
  %72 = load i64, ptr %17, align 8, !tbaa !10
  %73 = add i64 %72, 16
  %74 = load ptr, ptr %16, align 8, !tbaa !8
  %75 = load i64, ptr %17, align 8, !tbaa !10
  %76 = call i32 @mbedtls_cipher_auth_decrypt_ext(ptr noundef %68, ptr noundef %69, i64 noundef 12, ptr noundef %70, i64 noundef 18, ptr noundef %71, i64 noundef %73, ptr noundef %74, i64 noundef %75, ptr noundef %18, i64 noundef 16)
  store i32 %76, ptr %10, align 4, !tbaa !12
  %77 = icmp ne i32 %76, 0
  br i1 %77, label %78, label %83

78:                                               ; preds = %66
  %79 = load i32, ptr %10, align 4, !tbaa !12
  %80 = icmp eq i32 %79, -25344
  br i1 %80, label %81, label %82

81:                                               ; preds = %78
  store i32 -29056, ptr %10, align 4, !tbaa !12
  br label %82

82:                                               ; preds = %81, %78
  br label %118

83:                                               ; preds = %66
  %84 = load i64, ptr %18, align 8, !tbaa !10
  %85 = load i64, ptr %17, align 8, !tbaa !10
  %86 = icmp ne i64 %84, %85
  br i1 %86, label %87, label %88

87:                                               ; preds = %83
  store i32 -27648, ptr %10, align 4, !tbaa !12
  br label %118

88:                                               ; preds = %83
  %89 = load ptr, ptr %7, align 8, !tbaa !33
  %90 = load ptr, ptr %16, align 8, !tbaa !8
  %91 = load i64, ptr %18, align 8, !tbaa !10
  %92 = call i32 @mbedtls_ssl_session_load(ptr noundef %89, ptr noundef %90, i64 noundef %91)
  store i32 %92, ptr %10, align 4, !tbaa !12
  %93 = icmp ne i32 %92, 0
  br i1 %93, label %94, label %95

94:                                               ; preds = %88
  br label %118

95:                                               ; preds = %88
  %96 = load ptr, ptr %12, align 8, !tbaa !17
  %97 = getelementptr inbounds nuw %struct.mbedtls_ssl_ticket_key, ptr %96, i32 0, i32 2
  %98 = load i32, ptr %97, align 8, !tbaa !25
  %99 = zext i32 %98 to i64
  %100 = mul nsw i64 %99, 1000
  store i64 %100, ptr %22, align 8, !tbaa !10
  %101 = load ptr, ptr %7, align 8, !tbaa !33
  %102 = call i32 @mbedtls_ssl_session_get_ticket_creation_time(ptr noundef %101, ptr noundef %20)
  store i32 %102, ptr %10, align 4, !tbaa !12
  %103 = load i32, ptr %10, align 4, !tbaa !12
  %104 = icmp ne i32 %103, 0
  br i1 %104, label %105, label %106

105:                                              ; preds = %95
  br label %118

106:                                              ; preds = %95
  %107 = call i64 @mbedtls_ms_time()
  %108 = load i64, ptr %20, align 8, !tbaa !10
  %109 = sub nsw i64 %107, %108
  store i64 %109, ptr %21, align 8, !tbaa !10
  %110 = load i64, ptr %21, align 8, !tbaa !10
  %111 = icmp slt i64 %110, 0
  br i1 %111, label %116, label %112

112:                                              ; preds = %106
  %113 = load i64, ptr %21, align 8, !tbaa !10
  %114 = load i64, ptr %22, align 8, !tbaa !10
  %115 = icmp sgt i64 %113, %114
  br i1 %115, label %116, label %117

116:                                              ; preds = %112, %106
  store i32 -28032, ptr %10, align 4, !tbaa !12
  br label %118

117:                                              ; preds = %112
  br label %118

118:                                              ; preds = %117, %116, %105, %94, %87, %82, %65, %59, %47
  %119 = load i32, ptr %10, align 4, !tbaa !12
  store i32 %119, ptr %5, align 4
  store i32 1, ptr %19, align 4
  br label %120

120:                                              ; preds = %118, %42, %38
  call void @llvm.lifetime.end.p0(i64 8, ptr %18) #10
  call void @llvm.lifetime.end.p0(i64 8, ptr %17) #10
  call void @llvm.lifetime.end.p0(i64 8, ptr %16) #10
  call void @llvm.lifetime.end.p0(i64 8, ptr %15) #10
  call void @llvm.lifetime.end.p0(i64 8, ptr %14) #10
  call void @llvm.lifetime.end.p0(i64 8, ptr %13) #10
  call void @llvm.lifetime.end.p0(i64 8, ptr %12) #10
  call void @llvm.lifetime.end.p0(i64 8, ptr %11) #10
  call void @llvm.lifetime.end.p0(i64 4, ptr %10) #10
  %121 = load i32, ptr %5, align 4
  ret i32 %121
}