; Function Attrs: nounwind uwtable
define hidden i32 @mbedtls_ssl_ticket_parse(ptr noundef %0, ptr noundef %1, ptr noundef %2, i64 noundef %3) local_unnamed_addr #2 {
  %5 = alloca i64, align 8
  %6 = getelementptr inbounds nuw i8, ptr %2, i64 4
  %7 = getelementptr inbounds nuw i8, ptr %2, i64 16
  %8 = getelementptr inbounds nuw i8, ptr %2, i64 18
  call void @llvm.lifetime.start.p0(i64 8, ptr nonnull %5) #8
  %9 = icmp eq ptr %0, null
  br i1 %9, label %ssl_ticket_select_key.exit.thread, label %10

10:                                               ; preds = %4
  %11 = getelementptr inbounds nuw i8, ptr %0, i64 248
  %12 = load ptr, ptr %11, align 8, !tbaa !18
  %13 = icmp eq ptr %12, null
  %14 = icmp ult i64 %3, 34
  %or.cond47 = or i1 %14, %13
  br i1 %or.cond47, label %ssl_ticket_select_key.exit.thread, label %15

15:                                               ; preds = %10
  %16 = tail call fastcc i32 @ssl_ticket_update_keys(ptr noundef %0)
  %.not = icmp eq i32 %16, 0
  br i1 %.not, label %17, label %ssl_ticket_select_key.exit.thread

17:                                               ; preds = %15
  %.0.copyload.i = load i16, ptr %7, align 1
  %18 = tail call i16 @llvm.bswap.i16(i16 %.0.copyload.i)
  %19 = zext i16 %18 to i64
  %20 = add nuw nsw i64 %19, 34
  %.not42 = icmp eq i64 %3, %20
  br i1 %.not42, label %.preheader, label %ssl_ticket_select_key.exit.thread

21:                                               ; preds = %.preheader
  br i1 %22, label %.preheader, label %ssl_ticket_select_key.exit.thread, !llvm.loop !22

.preheader:                                       ; preds = %17, %21
  %22 = phi i1 [ false, %21 ], [ true, %17 ]
  %indvars.iv.i = phi i64 [ 1, %21 ], [ 0, %17 ]
  %23 = getelementptr inbounds nuw [2 x %struct.mbedtls_ssl_ticket_key], ptr %0, i64 0, i64 %indvars.iv.i
  %bcmp.i = tail call i32 @bcmp(ptr noundef nonnull readonly dereferenceable(4) %2, ptr noundef nonnull readonly dereferenceable(4) %23, i64 4)
  %24 = icmp eq i32 %bcmp.i, 0
  br i1 %24, label %ssl_ticket_select_key.exit, label %21

ssl_ticket_select_key.exit:                       ; preds = %.preheader
  %25 = getelementptr inbounds nuw i8, ptr %23, i64 24
  %26 = add nuw nsw i64 %19, 16
  %27 = call i32 @mbedtls_cipher_auth_decrypt_ext(ptr noundef nonnull %25, ptr noundef nonnull %6, i64 noundef 12, ptr noundef nonnull %2, i64 noundef 18, ptr noundef nonnull %8, i64 noundef %26, ptr noundef nonnull %8, i64 noundef %19, ptr noundef nonnull %5, i64 noundef 16) #8
  %.not43 = icmp eq i32 %27, 0
  br i1 %.not43, label %30, label %28

28:                                               ; preds = %ssl_ticket_select_key.exit
  %29 = icmp eq i32 %27, -25344
  %spec.store.select = select i1 %29, i32 -29056, i32 %27
  br label %ssl_ticket_select_key.exit.thread

30:                                               ; preds = %ssl_ticket_select_key.exit
  %31 = load i64, ptr %5, align 8, !tbaa !20
  %.not44 = icmp eq i64 %31, %19
  br i1 %.not44, label %32, label %ssl_ticket_select_key.exit.thread

32:                                               ; preds = %30
  %33 = call i32 @mbedtls_ssl_session_load(ptr noundef %1, ptr noundef nonnull %8, i64 noundef %19) #8
  %.not45 = icmp eq i32 %33, 0
  br i1 %.not45, label %34, label %ssl_ticket_select_key.exit.thread

34:                                               ; preds = %32
  %35 = getelementptr inbounds nuw i8, ptr %23, i64 16
  %36 = load i32, ptr %35, align 8, !tbaa !17
  %37 = zext i32 %36 to i64
  %38 = mul nuw nsw i64 %37, 1000
  %39 = icmp eq ptr %1, null
  br i1 %39, label %ssl_ticket_select_key.exit.thread, label %40

40:                                               ; preds = %34
  %41 = getelementptr inbounds nuw i8, ptr %1, i64 2
  %42 = load i8, ptr %41, align 2, !tbaa !24
  %.not.i = icmp eq i8 %42, 1
  br i1 %.not.i, label %43, label %ssl_ticket_select_key.exit.thread

43:                                               ; preds = %40
  %44 = getelementptr inbounds nuw i8, ptr %1, i64 152
  %45 = load i64, ptr %44, align 8, !tbaa !29
  %46 = call i64 @mbedtls_ms_time() #8
  %47 = sub nsw i64 %46, %45
  %48 = icmp slt i64 %47, 0
  %49 = icmp sgt i64 %47, %38
  %or.cond = select i1 %48, i1 true, i1 %49
  %spec.select = select i1 %or.cond, i32 -28032, i32 0
  br label %ssl_ticket_select_key.exit.thread

ssl_ticket_select_key.exit.thread:                ; preds = %21, %34, %40, %43, %28, %15, %32, %17, %30, %4, %10
  %.0 = phi i32 [ -28928, %10 ], [ -28928, %4 ], [ %16, %15 ], [ %spec.store.select, %28 ], [ %33, %32 ], [ -28928, %17 ], [ -27648, %30 ], [ %spec.select, %43 ], [ -28928, %40 ], [ -28928, %34 ], [ -28032, %21 ]
  call void @llvm.lifetime.end.p0(i64 8, ptr nonnull %5) #8
  ret i32 %.0
}